target datalayout = "e-m:e-p270:32:32-p271:32:32-p272:64:64-i64:64-i128:128-f80:128-n8:16:32:64-S128"
target triple = "x86_64-pc-linux-gnu"

%struct.ss7pc = type { i32, [64 x i8], [64 x i8] }

@addr_resolv_scope = internal global ptr null, align 8
@ss7pc_hash_table = internal global ptr null, align 8

; Function Attrs: null_pointer_is_valid sspstrong uwtable
define internal ptr @new_ss7pc(i8 noundef zeroext %0, i32 noundef %1) #3 {
  %3 = alloca i8, align 1
  %4 = alloca i32, align 4
  %5 = alloca ptr, align 8
  store i8 %0, ptr %3, align 1
  store i32 %1, ptr %4, align 4
  call void @llvm.lifetime.start.p0(i64 8, ptr %5) #16
  %6 = load ptr, ptr @addr_resolv_scope, align 8
  %7 = call noalias ptr @wmem_alloc(ptr noundef %6, i64 noundef 132) #19
  store ptr %7, ptr %5, align 8
  %8 = load i8, ptr %3, align 1
  %9 = zext i8 %8 to i32
  %10 = shl i32 %9, 24
  %11 = load i32, ptr %4, align 4
  %12 = and i32 %11, 16777215
  %13 = add i32 %10, %12
  %14 = load ptr, ptr %5, align 8
  %15 = getelementptr inbounds nuw %struct.ss7pc, ptr %14, i32 0, i32 0
  store i32 %13, ptr %15, align 4
  %16 = load ptr, ptr %5, align 8
  %17 = getelementptr inbounds nuw %struct.ss7pc, ptr %16, i32 0, i32 1
  %18 = getelementptr [64 x i8], ptr %17, i64 0, i64 0
  store i8 0, ptr %18, align 4
  %19 = load ptr, ptr %5, align 8
  %20 = getelementptr inbounds nuw %struct.ss7pc, ptr %19, i32 0, i32 2
  %21 = getelementptr [64 x i8], ptr %20, i64 0, i64 0
  store i8 0, ptr %21, align 4
  %22 = load ptr, ptr %5, align 8
  call void @llvm.lifetime.end.p0(i64 8, ptr %5) #16
  ret ptr %22
}

; Function Attrs: null_pointer_is_valid sspstrong uwtable
define internal ptr @host_lookup_ss7pc(i8 noundef zeroext %0, i32 noundef %1) #3 {
  %3 = alloca i8, align 1
  %4 = alloca i32, align 4
  %5 = alloca ptr, align 8
  %6 = alloca i32, align 4
  store i8 %0, ptr %3, align 1
  store i32 %1, ptr %4, align 4
  call void @llvm.lifetime.start.p0(i64 8, ptr %5) #16
  call void @llvm.lifetime.start.p0(i64 4, ptr %6) #16
  %7 = load i8, ptr %3, align 1
  %8 = zext i8 %7 to i32
  %9 = shl i32 %8, 24
  %10 = load i32, ptr %4, align 4
  %11 = and i32 %10, 16777215
  %12 = add i32 %9, %11
  store i32 %12, ptr %6, align 4
  %13 = load ptr, ptr @ss7pc_hash_table, align 8
  %14 = load i32, ptr %6, align 4
  %15 = zext i32 %14 to i64
  %16 = inttoptr i64 %15 to ptr
  %17 = call ptr @wmem_map_lookup(ptr noundef %13, ptr noundef %16)
  store volatile ptr %17, ptr %5, align 8
  %18 = load volatile ptr, ptr %5, align 8
  %19 = icmp eq ptr %18, null
  br i1 %19, label %20, label %30

20:                                               ; preds = %2
  %21 = load i8, ptr %3, align 1
  %22 = load i32, ptr %4, align 4
  %23 = call ptr @new_ss7pc(i8 noundef zeroext %21, i32 noundef %22)
  store volatile ptr %23, ptr %5, align 8
  %24 = load ptr, ptr @ss7pc_hash_table, align 8
  %25 = load i32, ptr %6, align 4
  %26 = zext i32 %25 to i64
  %27 = inttoptr i64 %26 to ptr
  %28 = load volatile ptr, ptr %5, align 8
  %29 = call ptr @wmem_map_insert(ptr noundef %24, ptr noundef %27, ptr noundef %28)
  br label %30

30:                                               ; preds = %20, %2
  %31 = load volatile ptr, ptr %5, align 8
  call void @llvm.lifetime.end.p0(i64 4, ptr %6) #16
  call void @llvm.lifetime.end.p0(i64 8, ptr %5) #16
  ret ptr %31
}

; Function Attrs: null_pointer_is_valid sspstrong uwtable
define hidden void @fill_unresolved_ss7pc(ptr noundef %0, i8 noundef zeroext %1, i32 noundef %2) #3 {
  %4 = alloca ptr, align 8
  %5 = alloca i8, align 1
  %6 = alloca i32, align 4
  %7 = alloca ptr, align 8
  store ptr %0, ptr %4, align 8
  store i8 %1, ptr %5, align 1
  store i32 %2, ptr %6, align 4
  call void @llvm.lifetime.start.p0(i64 8, ptr %7) #16
  %8 = load i8, ptr %5, align 1
  %9 = load i32, ptr %6, align 4
  %10 = call ptr @host_lookup_ss7pc(i8 noundef zeroext %8, i32 noundef %9)
  store ptr %10, ptr %7, align 8
  %11 = load ptr, ptr %7, align 8
  %12 = getelementptr inbounds nuw %struct.ss7pc, ptr %11, i32 0, i32 1
  %13 = getelementptr inbounds [64 x i8], ptr %12, i64 0, i64 0
  %14 = load ptr, ptr %4, align 8
  %15 = call i64 @g_strlcpy(ptr noundef %13, ptr noundef %14, i64 noundef 64)
  call void @llvm.lifetime.end.p0(i64 8, ptr %7) #16
  ret void
}