; Function Attrs: null_pointer_is_valid sspstrong uwtable
define hidden void @fill_unresolved_ss7pc(ptr noundef %0, i8 noundef zeroext %1, i32 noundef %2) local_unnamed_addr #3 {
  %4 = alloca ptr, align 8
  call void @llvm.lifetime.start.p0(i64 8, ptr nonnull %4)
  %5 = zext i8 %1 to i32
  %6 = shl nuw i32 %5, 24
  %7 = and i32 %2, 16777215
  %8 = or disjoint i32 %6, %7
  %9 = load ptr, ptr @ss7pc_hash_table, align 8
  %10 = zext i32 %8 to i64
  %11 = inttoptr i64 %10 to ptr
  %12 = tail call ptr @wmem_map_lookup(ptr noundef %9, ptr noundef %11)
  store volatile ptr %12, ptr %4, align 8
  %.0..0..0..0..0..0..i = load volatile ptr, ptr %4, align 8
  %13 = icmp eq ptr %.0..0..0..0..0..0..i, null
  br i1 %13, label %14, label %host_lookup_ss7pc.exit

14:                                               ; preds = %3
  %15 = load ptr, ptr @addr_resolv_scope, align 8
  %16 = tail call noalias dereferenceable_or_null(132) ptr @wmem_alloc(ptr noundef %15, i64 noundef 132) #26
  store i32 %8, ptr %16, align 4
  %17 = getelementptr inbounds nuw i8, ptr %16, i64 4
  store i8 0, ptr %17, align 4
  %18 = getelementptr inbounds nuw i8, ptr %16, i64 68
  store i8 0, ptr %18, align 4
  store volatile ptr %16, ptr %4, align 8
  %19 = load ptr, ptr @ss7pc_hash_table, align 8
  %.0..0..0..0..0..0.2.i = load volatile ptr, ptr %4, align 8
  %20 = tail call ptr @wmem_map_insert(ptr noundef %19, ptr noundef %11, ptr noundef %.0..0..0..0..0..0.2.i)
  br label %host_lookup_ss7pc.exit

host_lookup_ss7pc.exit:                           ; preds = %3, %14
  %.0..0..0..0..0..0.3.i = load volatile ptr, ptr %4, align 8
  call void @llvm.lifetime.end.p0(i64 8, ptr nonnull %4)
  %21 = getelementptr inbounds nuw i8, ptr %.0..0..0..0..0..0.3.i, i64 4
  %22 = tail call i64 @g_strlcpy(ptr noundef nonnull %21, ptr noundef %0, i64 noundef 64)
  ret void
}